target datalayout = "e-m:e-p270:32:32-p271:32:32-p272:64:64-i64:64-i128:128-f80:128-n8:16:32:64-S128"
target triple = "x86_64-pc-linux-gnu"

%struct.mbedtls_cipher_definition_t = type { i32, ptr }
%struct.mbedtls_cipher_info_t = type { i32, i32, i32, ptr, i32, i32, i32, ptr }
%struct.mbedtls_cipher_base_t = type { i32, ptr, ptr, ptr, ptr, ptr }

@mbedtls_cipher_definitions = external global [0 x %struct.mbedtls_cipher_definition_t], align 8

; Function Attrs: mustprogress nounwind uwtable
define hidden ptr @mbedtls_cipher_info_from_values(i32 noundef %0, i32 noundef %1, i32 noundef %2) #0 {
  %4 = alloca ptr, align 8
  %5 = alloca i32, align 4
  %6 = alloca i32, align 4
  %7 = alloca i32, align 4
  %8 = alloca ptr, align 8
  %9 = alloca i32, align 4
  store i32 %0, ptr %5, align 4, !tbaa !27
  store i32 %1, ptr %6, align 4, !tbaa !3
  store i32 %2, ptr %7, align 4, !tbaa !29
  call void @llvm.lifetime.start.p0(i64 8, ptr %8) #8
  store ptr @mbedtls_cipher_definitions, ptr %8, align 8, !tbaa !7
  br label %10

10:                                               ; preds = %46, %3
  %11 = load ptr, ptr %8, align 8, !tbaa !7
  %12 = getelementptr inbounds nuw %struct.mbedtls_cipher_definition_t, ptr %11, i32 0, i32 1
  %13 = load ptr, ptr %12, align 8, !tbaa !18
  %14 = icmp ne ptr %13, null
  br i1 %14, label %15, label %49

15:                                               ; preds = %10
  %16 = load ptr, ptr %8, align 8, !tbaa !7
  %17 = getelementptr inbounds nuw %struct.mbedtls_cipher_definition_t, ptr %16, i32 0, i32 1
  %18 = load ptr, ptr %17, align 8, !tbaa !18
  %19 = getelementptr inbounds nuw %struct.mbedtls_cipher_info_t, ptr %18, i32 0, i32 7
  %20 = load ptr, ptr %19, align 8, !tbaa !30
  %21 = getelementptr inbounds nuw %struct.mbedtls_cipher_base_t, ptr %20, i32 0, i32 0
  %22 = load i32, ptr %21, align 8, !tbaa !31
  %23 = load i32, ptr %5, align 4, !tbaa !27
  %24 = icmp eq i32 %22, %23
  br i1 %24, label %25, label %45

25:                                               ; preds = %15
  %26 = load ptr, ptr %8, align 8, !tbaa !7
  %27 = getelementptr inbounds nuw %struct.mbedtls_cipher_definition_t, ptr %26, i32 0, i32 1
  %28 = load ptr, ptr %27, align 8, !tbaa !18
  %29 = getelementptr inbounds nuw %struct.mbedtls_cipher_info_t, ptr %28, i32 0, i32 2
  %30 = load i32, ptr %29, align 8, !tbaa !33
  %31 = load i32, ptr %6, align 4, !tbaa !3
  %32 = icmp eq i32 %30, %31
  br i1 %32, label %33, label %45

33:                                               ; preds = %25
  %34 = load ptr, ptr %8, align 8, !tbaa !7
  %35 = getelementptr inbounds nuw %struct.mbedtls_cipher_definition_t, ptr %34, i32 0, i32 1
  %36 = load ptr, ptr %35, align 8, !tbaa !18
  %37 = getelementptr inbounds nuw %struct.mbedtls_cipher_info_t, ptr %36, i32 0, i32 1
  %38 = load i32, ptr %37, align 4, !tbaa !34
  %39 = load i32, ptr %7, align 4, !tbaa !29
  %40 = icmp eq i32 %38, %39
  br i1 %40, label %41, label %45

41:                                               ; preds = %33
  %42 = load ptr, ptr %8, align 8, !tbaa !7
  %43 = getelementptr inbounds nuw %struct.mbedtls_cipher_definition_t, ptr %42, i32 0, i32 1
  %44 = load ptr, ptr %43, align 8, !tbaa !18
  store ptr %44, ptr %4, align 8
  store i32 1, ptr %9, align 4
  br label %50

45:                                               ; preds = %33, %25, %15
  br label %46

46:                                               ; preds = %45
  %47 = load ptr, ptr %8, align 8, !tbaa !7
  %48 = getelementptr inbounds nuw %struct.mbedtls_cipher_definition_t, ptr %47, i32 1
  store ptr %48, ptr %8, align 8, !tbaa !7
  br label %10, !llvm.loop !35

49:                                               ; preds = %10
  store ptr null, ptr %4, align 8
  store i32 1, ptr %9, align 4
  br label %50

50:                                               ; preds = %49, %41
  call void @llvm.lifetime.end.p0(i64 8, ptr %8) #8
  %51 = load ptr, ptr %4, align 8
  ret ptr %51
}