; Function Attrs: mustprogress nofree norecurse nosync nounwind willreturn memory(read, inaccessiblemem: none) uwtable
define hidden ptr @mbedtls_cipher_info_from_values(i32 noundef %0, i32 noundef %1, i32 noundef %2) local_unnamed_addr #5 {
  %4 = load ptr, ptr getelementptr inbounds nuw (i8, ptr @mbedtls_cipher_definitions, i64 8), align 8, !tbaa !14
  %.not11 = icmp eq ptr %4, null
  br i1 %.not11, label %._crit_edge, label %.lr.ph

.lr.ph:                                           ; preds = %3, %18
  %5 = phi ptr [ %21, %18 ], [ %4, %3 ]
  %.012 = phi ptr [ %19, %18 ], [ @mbedtls_cipher_definitions, %3 ]
  %6 = getelementptr inbounds nuw i8, ptr %5, i64 40
  %7 = load ptr, ptr %6, align 8, !tbaa !22
  %8 = load i32, ptr %7, align 8, !tbaa !23
  %9 = icmp eq i32 %8, %0
  br i1 %9, label %10, label %18

10:                                               ; preds = %.lr.ph
  %11 = getelementptr inbounds nuw i8, ptr %5, i64 8
  %12 = load i32, ptr %11, align 8, !tbaa !26
  %13 = icmp eq i32 %12, %1
  br i1 %13, label %14, label %18

14:                                               ; preds = %10
  %15 = getelementptr inbounds nuw i8, ptr %5, i64 4
  %16 = load i32, ptr %15, align 4, !tbaa !27
  %17 = icmp eq i32 %16, %2
  br i1 %17, label %._crit_edge, label %18

18:                                               ; preds = %.lr.ph, %10, %14
  %19 = getelementptr inbounds nuw i8, ptr %.012, i64 16
  %20 = getelementptr inbounds nuw i8, ptr %.012, i64 24
  %21 = load ptr, ptr %20, align 8, !tbaa !14
  %.not = icmp eq ptr %21, null
  br i1 %.not, label %._crit_edge, label %.lr.ph, !llvm.loop !28

._crit_edge:                                      ; preds = %14, %18, %3
  %.lcssa = phi ptr [ null, %3 ], [ null, %18 ], [ %5, %14 ]
  ret ptr %.lcssa
}